target datalayout = "e-m:e-p270:32:32-p271:32:32-p272:64:64-i64:64-i128:128-f80:128-n8:16:32:64-S128"
target triple = "x86_64-pc-linux-gnu"

%struct.CVodeMemRec = type { ptr, double, ptr, ptr, i32, i32, double, double, ptr, i32, i32, ptr, ptr, i32, [13 x ptr], ptr, ptr, ptr, ptr, ptr, ptr, ptr, ptr, ptr, i32, i32, double, i32, i32, i32, i32, i32, double, double, double, double, double, double, double, double, [14 x double], [6 x double], [13 x double], double, double, double, double, double, double, double, i32, double, i32, i64, i32, i32, i32, double, double, double, double, double, double, double, double, double, double, double, double, i64, i32, i64, i64, i64, i64, i64, i64, i64, i32, double, double, double, i64, i64, i64, i64, ptr, i32, ptr, i32, ptr, ptr, ptr, ptr, ptr, i64, double, i32, i64, double, double, double, i32, double, i32, i32, i32, i32, i32, ptr, i64, i32, [6 x [4 x double]], i32, i64, ptr, i32, ptr, ptr, double, double, double, ptr, ptr, ptr, double, double, i32, i32, i64, ptr, i32, ptr, i32, i32, [13 x double], [13 x double], [13 x ptr], i32 }

@.str = private unnamed_addr constant [113 x i8] c"generated/home/dtcxzyw/WorkSpace/Projects/compilers/llvm-opt-benchmark/bench/sundials/sundials/src/cvode/cvode.c\00", align 1
@.str.4 = private unnamed_addr constant [26 x i8] c"cvode_mem = NULL illegal.\00", align 1
@.str.18 = private unnamed_addr constant [75 x i8] c"At t = %lg, the right-hand side routine failed in an unrecoverable manner.\00", align 1
@.str.22 = private unnamed_addr constant [71 x i8] c"At t = %lg, the rootfinding routine failed in an unrecoverable manner.\00", align 1
@.str.41 = private unnamed_addr constant [25 x i8] c"proj_mem = NULL illegal.\00", align 1
@__func__.cvHandleFailure = private unnamed_addr constant [16 x i8] c"cvHandleFailure\00", align 1
@.str.42 = private unnamed_addr constant [77 x i8] c"At t = %lg and h = %lg, the error test failed repeatedly or with |h| = hmin.\00", align 1
@.str.43 = private unnamed_addr constant [93 x i8] c"At t = %lg and h = %lg, the corrector convergence test failed repeatedly or with |h| = hmin.\00", align 1
@.str.44 = private unnamed_addr constant [65 x i8] c"At t = %lg, the setup routine failed in an unrecoverable manner.\00", align 1
@.str.45 = private unnamed_addr constant [65 x i8] c"At t = %lg, the solve routine failed in an unrecoverable manner.\00", align 1
@.str.46 = private unnamed_addr constant [93 x i8] c"At t = %lg, the right-hand side failed in a recoverable manner, but no recovery is possible.\00", align 1
@.str.47 = private unnamed_addr constant [65 x i8] c"At t = %lg repeated recoverable right-hand side function errors.\00", align 1
@.str.48 = private unnamed_addr constant [43 x i8] c"tout too close to t0 to start integration.\00", align 1
@.str.49 = private unnamed_addr constant [58 x i8] c"At t = %lg, the nonlinear solver was passed a NULL input.\00", align 1
@.str.50 = private unnamed_addr constant [61 x i8] c"At t = %lg, the nonlinear solver setup failed unrecoverably.\00", align 1
@.str.51 = private unnamed_addr constant [54 x i8] c"At t = %lg, unable to satisfy inequality constraints.\00", align 1
@.str.52 = private unnamed_addr constant [68 x i8] c"At t = %lg, the nonlinear solver failed in an unrecoverable manner.\00", align 1
@.str.53 = private unnamed_addr constant [71 x i8] c"At t = %lg the projection function failed with an unrecoverable error.\00", align 1
@.str.54 = private unnamed_addr constant [68 x i8] c"At t = %lg the projection function had repeated recoverable errors.\00", align 1
@.str.55 = private unnamed_addr constant [114 x i8] c"CVODE encountered an unrecognized error. Please report this to the SUNDIALS developers at sundials-users@llnl.gov\00", align 1

; Function Attrs: nounwind uwtable
define internal i32 @cvHandleFailure(ptr noundef %0, i32 noundef %1) #0 {
  %3 = alloca i32, align 4
  %4 = alloca ptr, align 8
  %5 = alloca i32, align 4
  store ptr %0, ptr %4, align 8, !tbaa !10
  store i32 %1, ptr %5, align 4, !tbaa !3
  %6 = load i32, ptr %5, align 4, !tbaa !3
  switch i32 %6, label %88 [
    i32 -3, label %7
    i32 -4, label %15
    i32 -6, label %23
    i32 -7, label %28
    i32 -8, label %33
    i32 -11, label %38
    i32 -10, label %43
    i32 -12, label %48
    i32 -27, label %53
    i32 -21, label %55
    i32 -9999, label %56
    i32 -14, label %61
    i32 -15, label %66
    i32 -16, label %71
    i32 -29, label %76
    i32 -30, label %78
    i32 -31, label %83
  ]

7:                                                ; preds = %2
  %8 = load ptr, ptr %4, align 8, !tbaa !10
  %9 = load ptr, ptr %4, align 8, !tbaa !10
  %10 = getelementptr inbounds nuw %struct.CVodeMemRec, ptr %9, i32 0, i32 38
  %11 = load double, ptr %10, align 8, !tbaa !99
  %12 = load ptr, ptr %4, align 8, !tbaa !10
  %13 = getelementptr inbounds nuw %struct.CVodeMemRec, ptr %12, i32 0, i32 33
  %14 = load double, ptr %13, align 8, !tbaa !158
  call void (ptr, i32, i32, ptr, ptr, ptr, ...) @cvProcessError(ptr noundef %8, i32 noundef -3, i32 noundef 3678, ptr noundef @__func__.cvHandleFailure, ptr noundef @.str, ptr noundef @.str.42, double noundef %11, double noundef %14)
  br label %90

15:                                               ; preds = %2
  %16 = load ptr, ptr %4, align 8, !tbaa !10
  %17 = load ptr, ptr %4, align 8, !tbaa !10
  %18 = getelementptr inbounds nuw %struct.CVodeMemRec, ptr %17, i32 0, i32 38
  %19 = load double, ptr %18, align 8, !tbaa !99
  %20 = load ptr, ptr %4, align 8, !tbaa !10
  %21 = getelementptr inbounds nuw %struct.CVodeMemRec, ptr %20, i32 0, i32 33
  %22 = load double, ptr %21, align 8, !tbaa !158
  call void (ptr, i32, i32, ptr, ptr, ptr, ...) @cvProcessError(ptr noundef %16, i32 noundef -4, i32 noundef 3682, ptr noundef @__func__.cvHandleFailure, ptr noundef @.str, ptr noundef @.str.43, double noundef %19, double noundef %22)
  br label %90

23:                                               ; preds = %2
  %24 = load ptr, ptr %4, align 8, !tbaa !10
  %25 = load ptr, ptr %4, align 8, !tbaa !10
  %26 = getelementptr inbounds nuw %struct.CVodeMemRec, ptr %25, i32 0, i32 38
  %27 = load double, ptr %26, align 8, !tbaa !99
  call void (ptr, i32, i32, ptr, ptr, ptr, ...) @cvProcessError(ptr noundef %24, i32 noundef -6, i32 noundef 3686, ptr noundef @__func__.cvHandleFailure, ptr noundef @.str, ptr noundef @.str.44, double noundef %27)
  br label %90

28:                                               ; preds = %2
  %29 = load ptr, ptr %4, align 8, !tbaa !10
  %30 = load ptr, ptr %4, align 8, !tbaa !10
  %31 = getelementptr inbounds nuw %struct.CVodeMemRec, ptr %30, i32 0, i32 38
  %32 = load double, ptr %31, align 8, !tbaa !99
  call void (ptr, i32, i32, ptr, ptr, ptr, ...) @cvProcessError(ptr noundef %29, i32 noundef -7, i32 noundef 3690, ptr noundef @__func__.cvHandleFailure, ptr noundef @.str, ptr noundef @.str.45, double noundef %32)
  br label %90

33:                                               ; preds = %2
  %34 = load ptr, ptr %4, align 8, !tbaa !10
  %35 = load ptr, ptr %4, align 8, !tbaa !10
  %36 = getelementptr inbounds nuw %struct.CVodeMemRec, ptr %35, i32 0, i32 38
  %37 = load double, ptr %36, align 8, !tbaa !99
  call void (ptr, i32, i32, ptr, ptr, ptr, ...) @cvProcessError(ptr noundef %34, i32 noundef -8, i32 noundef 3694, ptr noundef @__func__.cvHandleFailure, ptr noundef @.str, ptr noundef @.str.18, double noundef %37)
  br label %90

38:                                               ; preds = %2
  %39 = load ptr, ptr %4, align 8, !tbaa !10
  %40 = load ptr, ptr %4, align 8, !tbaa !10
  %41 = getelementptr inbounds nuw %struct.CVodeMemRec, ptr %40, i32 0, i32 38
  %42 = load double, ptr %41, align 8, !tbaa !99
  call void (ptr, i32, i32, ptr, ptr, ptr, ...) @cvProcessError(ptr noundef %39, i32 noundef -11, i32 noundef 3698, ptr noundef @__func__.cvHandleFailure, ptr noundef @.str, ptr noundef @.str.46, double noundef %42)
  br label %90

43:                                               ; preds = %2
  %44 = load ptr, ptr %4, align 8, !tbaa !10
  %45 = load ptr, ptr %4, align 8, !tbaa !10
  %46 = getelementptr inbounds nuw %struct.CVodeMemRec, ptr %45, i32 0, i32 38
  %47 = load double, ptr %46, align 8, !tbaa !99
  call void (ptr, i32, i32, ptr, ptr, ptr, ...) @cvProcessError(ptr noundef %44, i32 noundef -10, i32 noundef 3702, ptr noundef @__func__.cvHandleFailure, ptr noundef @.str, ptr noundef @.str.47, double noundef %47)
  br label %90

48:                                               ; preds = %2
  %49 = load ptr, ptr %4, align 8, !tbaa !10
  %50 = load ptr, ptr %4, align 8, !tbaa !10
  %51 = getelementptr inbounds nuw %struct.CVodeMemRec, ptr %50, i32 0, i32 38
  %52 = load double, ptr %51, align 8, !tbaa !99
  call void (ptr, i32, i32, ptr, ptr, ptr, ...) @cvProcessError(ptr noundef %49, i32 noundef -12, i32 noundef 3706, ptr noundef @__func__.cvHandleFailure, ptr noundef @.str, ptr noundef @.str.22, double noundef %52)
  br label %90

53:                                               ; preds = %2
  %54 = load ptr, ptr %4, align 8, !tbaa !10
  call void (ptr, i32, i32, ptr, ptr, ptr, ...) @cvProcessError(ptr noundef %54, i32 noundef -27, i32 noundef 3710, ptr noundef @__func__.cvHandleFailure, ptr noundef @.str, ptr noundef @.str.48)
  br label %90

55:                                               ; preds = %2
  call void (ptr, i32, i32, ptr, ptr, ptr, ...) @cvProcessError(ptr noundef null, i32 noundef -21, i32 noundef 3714, ptr noundef @__func__.cvHandleFailure, ptr noundef @.str, ptr noundef @.str.4)
  br label %90

56:                                               ; preds = %2
  %57 = load ptr, ptr %4, align 8, !tbaa !10
  %58 = load ptr, ptr %4, align 8, !tbaa !10
  %59 = getelementptr inbounds nuw %struct.CVodeMemRec, ptr %58, i32 0, i32 38
  %60 = load double, ptr %59, align 8, !tbaa !99
  call void (ptr, i32, i32, ptr, ptr, ptr, ...) @cvProcessError(ptr noundef %57, i32 noundef -21, i32 noundef 3717, ptr noundef @__func__.cvHandleFailure, ptr noundef @.str, ptr noundef @.str.49, double noundef %60)
  br label %90

61:                                               ; preds = %2
  %62 = load ptr, ptr %4, align 8, !tbaa !10
  %63 = load ptr, ptr %4, align 8, !tbaa !10
  %64 = getelementptr inbounds nuw %struct.CVodeMemRec, ptr %63, i32 0, i32 38
  %65 = load double, ptr %64, align 8, !tbaa !99
  call void (ptr, i32, i32, ptr, ptr, ptr, ...) @cvProcessError(ptr noundef %62, i32 noundef -14, i32 noundef 3721, ptr noundef @__func__.cvHandleFailure, ptr noundef @.str, ptr noundef @.str.50, double noundef %65)
  br label %90

66:                                               ; preds = %2
  %67 = load ptr, ptr %4, align 8, !tbaa !10
  %68 = load ptr, ptr %4, align 8, !tbaa !10
  %69 = getelementptr inbounds nuw %struct.CVodeMemRec, ptr %68, i32 0, i32 38
  %70 = load double, ptr %69, align 8, !tbaa !99
  call void (ptr, i32, i32, ptr, ptr, ptr, ...) @cvProcessError(ptr noundef %67, i32 noundef -15, i32 noundef 3725, ptr noundef @__func__.cvHandleFailure, ptr noundef @.str, ptr noundef @.str.51, double noundef %70)
  br label %90

71:                                               ; preds = %2
  %72 = load ptr, ptr %4, align 8, !tbaa !10
  %73 = load ptr, ptr %4, align 8, !tbaa !10
  %74 = getelementptr inbounds nuw %struct.CVodeMemRec, ptr %73, i32 0, i32 38
  %75 = load double, ptr %74, align 8, !tbaa !99
  call void (ptr, i32, i32, ptr, ptr, ptr, ...) @cvProcessError(ptr noundef %72, i32 noundef -16, i32 noundef 3729, ptr noundef @__func__.cvHandleFailure, ptr noundef @.str, ptr noundef @.str.52, double noundef %75)
  br label %90

76:                                               ; preds = %2
  %77 = load ptr, ptr %4, align 8, !tbaa !10
  call void (ptr, i32, i32, ptr, ptr, ptr, ...) @cvProcessError(ptr noundef %77, i32 noundef -29, i32 noundef 3733, ptr noundef @__func__.cvHandleFailure, ptr noundef @.str, ptr noundef @.str.41)
  br label %90

78:                                               ; preds = %2
  %79 = load ptr, ptr %4, align 8, !tbaa !10
  %80 = load ptr, ptr %4, align 8, !tbaa !10
  %81 = getelementptr inbounds nuw %struct.CVodeMemRec, ptr %80, i32 0, i32 38
  %82 = load double, ptr %81, align 8, !tbaa !99
  call void (ptr, i32, i32, ptr, ptr, ptr, ...) @cvProcessError(ptr noundef %79, i32 noundef -30, i32 noundef 3737, ptr noundef @__func__.cvHandleFailure, ptr noundef @.str, ptr noundef @.str.53, double noundef %82)
  br label %90

83:                                               ; preds = %2
  %84 = load ptr, ptr %4, align 8, !tbaa !10
  %85 = load ptr, ptr %4, align 8, !tbaa !10
  %86 = getelementptr inbounds nuw %struct.CVodeMemRec, ptr %85, i32 0, i32 38
  %87 = load double, ptr %86, align 8, !tbaa !99
  call void (ptr, i32, i32, ptr, ptr, ptr, ...) @cvProcessError(ptr noundef %84, i32 noundef -31, i32 noundef 3741, ptr noundef @__func__.cvHandleFailure, ptr noundef @.str, ptr noundef @.str.54, double noundef %87)
  br label %90

88:                                               ; preds = %2
  %89 = load ptr, ptr %4, align 8, !tbaa !10
  call void (ptr, i32, i32, ptr, ptr, ptr, ...) @cvProcessError(ptr noundef %89, i32 noundef -99, i32 noundef 3746, ptr noundef @__func__.cvHandleFailure, ptr noundef @.str, ptr noundef @.str.55)
  store i32 -99, ptr %3, align 4
  br label %92

90:                                               ; preds = %83, %78, %76, %71, %66, %61, %56, %55, %53, %48, %43, %38, %33, %28, %23, %15, %7
  %91 = load i32, ptr %5, align 4, !tbaa !3
  store i32 %91, ptr %3, align 4
  br label %92

92:                                               ; preds = %90, %88
  %93 = load i32, ptr %3, align 4
  ret i32 %93
}