; Function Attrs: nounwind uwtable
define internal fastcc range(i32 -9999, -2) i32 @cvHandleFailure(ptr noundef nonnull captures(address_is_null) %0, i32 noundef %1) unnamed_addr #0 {
  switch i32 %1, label %52 [
    i32 -3, label %3
    i32 -4, label %8
    i32 -6, label %13
    i32 -7, label %16
    i32 -8, label %19
    i32 -11, label %22
    i32 -10, label %25
    i32 -12, label %28
    i32 -27, label %31
    i32 -21, label %32
    i32 -9999, label %33
    i32 -14, label %36
    i32 -15, label %39
    i32 -16, label %42
    i32 -29, label %45
    i32 -30, label %46
    i32 -31, label %49
  ]

3:                                                ; preds = %2
  %4 = getelementptr inbounds nuw i8, ptr %0, i64 360
  %5 = load double, ptr %4, align 8, !tbaa !81
  %6 = getelementptr inbounds nuw i8, ptr %0, i64 320
  %7 = load double, ptr %6, align 8, !tbaa !133
  tail call void (ptr, i32, i32, ptr, ptr, ptr, ...) @cvProcessError(ptr noundef nonnull %0, i32 noundef -3, i32 noundef 3678, ptr noundef nonnull @__func__.cvHandleFailure, ptr noundef nonnull @.str, ptr noundef nonnull @.str.42, double noundef %5, double noundef %7)
  br label %53

8:                                                ; preds = %2
  %9 = getelementptr inbounds nuw i8, ptr %0, i64 360
  %10 = load double, ptr %9, align 8, !tbaa !81
  %11 = getelementptr inbounds nuw i8, ptr %0, i64 320
  %12 = load double, ptr %11, align 8, !tbaa !133
  tail call void (ptr, i32, i32, ptr, ptr, ptr, ...) @cvProcessError(ptr noundef nonnull %0, i32 noundef -4, i32 noundef 3682, ptr noundef nonnull @__func__.cvHandleFailure, ptr noundef nonnull @.str, ptr noundef nonnull @.str.43, double noundef %10, double noundef %12)
  br label %53

13:                                               ; preds = %2
  %14 = getelementptr inbounds nuw i8, ptr %0, i64 360
  %15 = load double, ptr %14, align 8, !tbaa !81
  tail call void (ptr, i32, i32, ptr, ptr, ptr, ...) @cvProcessError(ptr noundef nonnull %0, i32 noundef -6, i32 noundef 3686, ptr noundef nonnull @__func__.cvHandleFailure, ptr noundef nonnull @.str, ptr noundef nonnull @.str.44, double noundef %15)
  br label %53

16:                                               ; preds = %2
  %17 = getelementptr inbounds nuw i8, ptr %0, i64 360
  %18 = load double, ptr %17, align 8, !tbaa !81
  tail call void (ptr, i32, i32, ptr, ptr, ptr, ...) @cvProcessError(ptr noundef nonnull %0, i32 noundef -7, i32 noundef 3690, ptr noundef nonnull @__func__.cvHandleFailure, ptr noundef nonnull @.str, ptr noundef nonnull @.str.45, double noundef %18)
  br label %53

19:                                               ; preds = %2
  %20 = getelementptr inbounds nuw i8, ptr %0, i64 360
  %21 = load double, ptr %20, align 8, !tbaa !81
  tail call void (ptr, i32, i32, ptr, ptr, ptr, ...) @cvProcessError(ptr noundef nonnull %0, i32 noundef -8, i32 noundef 3694, ptr noundef nonnull @__func__.cvHandleFailure, ptr noundef nonnull @.str, ptr noundef nonnull @.str.18, double noundef %21)
  br label %53

22:                                               ; preds = %2
  %23 = getelementptr inbounds nuw i8, ptr %0, i64 360
  %24 = load double, ptr %23, align 8, !tbaa !81
  tail call void (ptr, i32, i32, ptr, ptr, ptr, ...) @cvProcessError(ptr noundef nonnull %0, i32 noundef -11, i32 noundef 3698, ptr noundef nonnull @__func__.cvHandleFailure, ptr noundef nonnull @.str, ptr noundef nonnull @.str.46, double noundef %24)
  br label %53

25:                                               ; preds = %2
  %26 = getelementptr inbounds nuw i8, ptr %0, i64 360
  %27 = load double, ptr %26, align 8, !tbaa !81
  tail call void (ptr, i32, i32, ptr, ptr, ptr, ...) @cvProcessError(ptr noundef nonnull %0, i32 noundef -10, i32 noundef 3702, ptr noundef nonnull @__func__.cvHandleFailure, ptr noundef nonnull @.str, ptr noundef nonnull @.str.47, double noundef %27)
  br label %53

28:                                               ; preds = %2
  %29 = getelementptr inbounds nuw i8, ptr %0, i64 360
  %30 = load double, ptr %29, align 8, !tbaa !81
  tail call void (ptr, i32, i32, ptr, ptr, ptr, ...) @cvProcessError(ptr noundef nonnull %0, i32 noundef -12, i32 noundef 3706, ptr noundef nonnull @__func__.cvHandleFailure, ptr noundef nonnull @.str, ptr noundef nonnull @.str.22, double noundef %30)
  br label %53

31:                                               ; preds = %2
  tail call void (ptr, i32, i32, ptr, ptr, ptr, ...) @cvProcessError(ptr noundef nonnull %0, i32 noundef -27, i32 noundef 3710, ptr noundef nonnull @__func__.cvHandleFailure, ptr noundef nonnull @.str, ptr noundef nonnull @.str.48)
  br label %53

32:                                               ; preds = %2
  tail call void (ptr, i32, i32, ptr, ptr, ptr, ...) @cvProcessError(ptr noundef null, i32 noundef -21, i32 noundef 3714, ptr noundef nonnull @__func__.cvHandleFailure, ptr noundef nonnull @.str, ptr noundef nonnull @.str.4)
  br label %53

33:                                               ; preds = %2
  %34 = getelementptr inbounds nuw i8, ptr %0, i64 360
  %35 = load double, ptr %34, align 8, !tbaa !81
  tail call void (ptr, i32, i32, ptr, ptr, ptr, ...) @cvProcessError(ptr noundef nonnull %0, i32 noundef -21, i32 noundef 3717, ptr noundef nonnull @__func__.cvHandleFailure, ptr noundef nonnull @.str, ptr noundef nonnull @.str.49, double noundef %35)
  br label %53

36:                                               ; preds = %2
  %37 = getelementptr inbounds nuw i8, ptr %0, i64 360
  %38 = load double, ptr %37, align 8, !tbaa !81
  tail call void (ptr, i32, i32, ptr, ptr, ptr, ...) @cvProcessError(ptr noundef nonnull %0, i32 noundef -14, i32 noundef 3721, ptr noundef nonnull @__func__.cvHandleFailure, ptr noundef nonnull @.str, ptr noundef nonnull @.str.50, double noundef %38)
  br label %53

39:                                               ; preds = %2
  %40 = getelementptr inbounds nuw i8, ptr %0, i64 360
  %41 = load double, ptr %40, align 8, !tbaa !81
  tail call void (ptr, i32, i32, ptr, ptr, ptr, ...) @cvProcessError(ptr noundef nonnull %0, i32 noundef -15, i32 noundef 3725, ptr noundef nonnull @__func__.cvHandleFailure, ptr noundef nonnull @.str, ptr noundef nonnull @.str.51, double noundef %41)
  br label %53

42:                                               ; preds = %2
  %43 = getelementptr inbounds nuw i8, ptr %0, i64 360
  %44 = load double, ptr %43, align 8, !tbaa !81
  tail call void (ptr, i32, i32, ptr, ptr, ptr, ...) @cvProcessError(ptr noundef nonnull %0, i32 noundef -16, i32 noundef 3729, ptr noundef nonnull @__func__.cvHandleFailure, ptr noundef nonnull @.str, ptr noundef nonnull @.str.52, double noundef %44)
  br label %53

45:                                               ; preds = %2
  tail call void (ptr, i32, i32, ptr, ptr, ptr, ...) @cvProcessError(ptr noundef nonnull %0, i32 noundef -29, i32 noundef 3733, ptr noundef nonnull @__func__.cvHandleFailure, ptr noundef nonnull @.str, ptr noundef nonnull @.str.41)
  br label %53

46:                                               ; preds = %2
  %47 = getelementptr inbounds nuw i8, ptr %0, i64 360
  %48 = load double, ptr %47, align 8, !tbaa !81
  tail call void (ptr, i32, i32, ptr, ptr, ptr, ...) @cvProcessError(ptr noundef nonnull %0, i32 noundef -30, i32 noundef 3737, ptr noundef nonnull @__func__.cvHandleFailure, ptr noundef nonnull @.str, ptr noundef nonnull @.str.53, double noundef %48)
  br label %53

49:                                               ; preds = %2
  %50 = getelementptr inbounds nuw i8, ptr %0, i64 360
  %51 = load double, ptr %50, align 8, !tbaa !81
  tail call void (ptr, i32, i32, ptr, ptr, ptr, ...) @cvProcessError(ptr noundef nonnull %0, i32 noundef -31, i32 noundef 3741, ptr noundef nonnull @__func__.cvHandleFailure, ptr noundef nonnull @.str, ptr noundef nonnull @.str.54, double noundef %51)
  br label %53

52:                                               ; preds = %2
  tail call void (ptr, i32, i32, ptr, ptr, ptr, ...) @cvProcessError(ptr noundef nonnull %0, i32 noundef -99, i32 noundef 3746, ptr noundef nonnull @__func__.cvHandleFailure, ptr noundef nonnull @.str, ptr noundef nonnull @.str.55)
  br label %53

53:                                               ; preds = %3, %8, %13, %16, %19, %22, %25, %28, %31, %32, %33, %36, %39, %42, %45, %46, %49, %52
  %.0 = phi i32 [ -99, %52 ], [ -31, %49 ], [ -30, %46 ], [ -29, %45 ], [ -16, %42 ], [ -15, %39 ], [ -14, %36 ], [ -9999, %33 ], [ -21, %32 ], [ -27, %31 ], [ -12, %28 ], [ -10, %25 ], [ -11, %22 ], [ -8, %19 ], [ -7, %16 ], [ -6, %13 ], [ -4, %8 ], [ -3, %3 ]
  ret i32 %.0
}